target datalayout = "e-m:e-p270:32:32-p271:32:32-p272:64:64-i64:64-i128:128-f80:128-n8:16:32:64-S128"
target triple = "x86_64-pc-linux-gnu"

%struct.Map_NodeStruct_t_ = type { ptr, ptr, i32, i32, i32, i32, [3 x i32], [3 x float], float, ptr, ptr, ptr, ptr, [2 x %struct.Map_TimeStruct_t_], [2 x %struct.Map_TimeStruct_t_], [2 x ptr], ptr, ptr, ptr }
%struct.Map_TimeStruct_t_ = type { float, float, float }
%struct.Map_CutStruct_t_ = type { ptr, ptr, ptr, [6 x ptr], i32, i8, i8, i8, i8, [2 x %struct.Map_MatchStruct_t_] }
%struct.Map_MatchStruct_t_ = type { ptr, i32, i32, ptr, %struct.Map_TimeStruct_t_, float }

; Function Attrs: nounwind uwtable
define internal float @Map_SwitchCutRefDeref(ptr noundef %0, ptr noundef %1, i32 noundef %2, i32 noundef %3) #0 {
  %5 = alloca float, align 4
  %6 = alloca ptr, align 8
  %7 = alloca ptr, align 8
  %8 = alloca i32, align 4
  %9 = alloca i32, align 4
  %10 = alloca ptr, align 8
  %11 = alloca ptr, align 8
  %12 = alloca float, align 4
  %13 = alloca i32, align 4
  %14 = alloca i32, align 4
  %15 = alloca i32, align 4
  store ptr %0, ptr %6, align 8, !tbaa !3
  store ptr %1, ptr %7, align 8, !tbaa !8
  store i32 %2, ptr %8, align 4, !tbaa !10
  store i32 %3, ptr %9, align 4, !tbaa !10
  call void @llvm.lifetime.start.p0(i64 8, ptr %10) #3
  call void @llvm.lifetime.start.p0(i64 8, ptr %11) #3
  call void @llvm.lifetime.start.p0(i64 4, ptr %12) #3
  call void @llvm.lifetime.start.p0(i64 4, ptr %13) #3
  call void @llvm.lifetime.start.p0(i64 4, ptr %14) #3
  %16 = load ptr, ptr %6, align 8, !tbaa !3
  %17 = getelementptr inbounds nuw %struct.Map_NodeStruct_t_, ptr %16, i32 0, i32 8
  %18 = load float, ptr %17, align 8, !tbaa !14
  store float %18, ptr %12, align 4, !tbaa !12
  %19 = load ptr, ptr %7, align 8, !tbaa !8
  %20 = getelementptr inbounds nuw %struct.Map_CutStruct_t_, ptr %19, i32 0, i32 5
  %21 = load i8, ptr %20, align 4, !tbaa !18
  %22 = sext i8 %21 to i32
  %23 = icmp eq i32 %22, 1
  br i1 %23, label %24, label %26

24:                                               ; preds = %4
  %25 = load float, ptr %12, align 4, !tbaa !12
  store float %25, ptr %5, align 4
  store i32 1, ptr %15, align 4
  br label %202

26:                                               ; preds = %4
  store i32 0, ptr %13, align 4, !tbaa !10
  br label %27

27:                                               ; preds = %197, %26
  %28 = load i32, ptr %13, align 4, !tbaa !10
  %29 = load ptr, ptr %7, align 8, !tbaa !8
  %30 = getelementptr inbounds nuw %struct.Map_CutStruct_t_, ptr %29, i32 0, i32 5
  %31 = load i8, ptr %30, align 4, !tbaa !18
  %32 = sext i8 %31 to i32
  %33 = icmp slt i32 %28, %32
  br i1 %33, label %34, label %200

34:                                               ; preds = %27
  %35 = load ptr, ptr %7, align 8, !tbaa !8
  %36 = getelementptr inbounds nuw %struct.Map_CutStruct_t_, ptr %35, i32 0, i32 3
  %37 = load i32, ptr %13, align 4, !tbaa !10
  %38 = sext i32 %37 to i64
  %39 = getelementptr inbounds [6 x ptr], ptr %36, i64 0, i64 %38
  %40 = load ptr, ptr %39, align 8, !tbaa !3
  store ptr %40, ptr %10, align 8, !tbaa !3
  %41 = load ptr, ptr %7, align 8, !tbaa !8
  %42 = load i32, ptr %8, align 4, !tbaa !10
  %43 = load i32, ptr %13, align 4, !tbaa !10
  %44 = call i32 @Map_CutGetLeafPhase(ptr noundef %41, i32 noundef %42, i32 noundef %43)
  store i32 %44, ptr %14, align 4, !tbaa !10
  %45 = load i32, ptr %9, align 4, !tbaa !10
  %46 = icmp ne i32 %45, 0
  br i1 %46, label %47, label %108

47:                                               ; preds = %34
  %48 = load ptr, ptr %10, align 8, !tbaa !3
  %49 = getelementptr inbounds nuw %struct.Map_NodeStruct_t_, ptr %48, i32 0, i32 15
  %50 = getelementptr inbounds [2 x ptr], ptr %49, i64 0, i64 0
  %51 = load ptr, ptr %50, align 8, !tbaa !8
  %52 = icmp ne ptr %51, null
  br i1 %52, label %53, label %75

53:                                               ; preds = %47
  %54 = load ptr, ptr %10, align 8, !tbaa !3
  %55 = getelementptr inbounds nuw %struct.Map_NodeStruct_t_, ptr %54, i32 0, i32 15
  %56 = getelementptr inbounds [2 x ptr], ptr %55, i64 0, i64 1
  %57 = load ptr, ptr %56, align 8, !tbaa !8
  %58 = icmp ne ptr %57, null
  br i1 %58, label %59, label %75

59:                                               ; preds = %53
  %60 = load ptr, ptr %10, align 8, !tbaa !3
  %61 = getelementptr inbounds nuw %struct.Map_NodeStruct_t_, ptr %60, i32 0, i32 6
  %62 = getelementptr inbounds [3 x i32], ptr %61, i64 0, i64 2
  %63 = load i32, ptr %62, align 8, !tbaa !10
  %64 = add nsw i32 %63, 1
  store i32 %64, ptr %62, align 8, !tbaa !10
  %65 = load ptr, ptr %10, align 8, !tbaa !3
  %66 = getelementptr inbounds nuw %struct.Map_NodeStruct_t_, ptr %65, i32 0, i32 6
  %67 = load i32, ptr %14, align 4, !tbaa !10
  %68 = sext i32 %67 to i64
  %69 = getelementptr inbounds [3 x i32], ptr %66, i64 0, i64 %68
  %70 = load i32, ptr %69, align 4, !tbaa !10
  %71 = add nsw i32 %70, 1
  store i32 %71, ptr %69, align 4, !tbaa !10
  %72 = icmp sgt i32 %70, 0
  br i1 %72, label %73, label %74

73:                                               ; preds = %59
  br label %197

74:                                               ; preds = %59
  br label %107

75:                                               ; preds = %53, %47
  %76 = load ptr, ptr %10, align 8, !tbaa !3
  %77 = getelementptr inbounds nuw %struct.Map_NodeStruct_t_, ptr %76, i32 0, i32 6
  %78 = load i32, ptr %14, align 4, !tbaa !10
  %79 = sext i32 %78 to i64
  %80 = getelementptr inbounds [3 x i32], ptr %77, i64 0, i64 %79
  %81 = load i32, ptr %80, align 4, !tbaa !10
  %82 = add nsw i32 %81, 1
  store i32 %82, ptr %80, align 4, !tbaa !10
  %83 = icmp eq i32 %81, 0
  br i1 %83, label %84, label %98

84:                                               ; preds = %75
  %85 = load ptr, ptr %10, align 8, !tbaa !3
  %86 = getelementptr inbounds nuw %struct.Map_NodeStruct_t_, ptr %85, i32 0, i32 15
  %87 = load i32, ptr %14, align 4, !tbaa !10
  %88 = sext i32 %87 to i64
  %89 = getelementptr inbounds [2 x ptr], ptr %86, i64 0, i64 %88
  %90 = load ptr, ptr %89, align 8, !tbaa !8
  %91 = icmp eq ptr %90, null
  br i1 %91, label %92, label %98

92:                                               ; preds = %84
  %93 = load ptr, ptr %10, align 8, !tbaa !3
  %94 = getelementptr inbounds nuw %struct.Map_NodeStruct_t_, ptr %93, i32 0, i32 8
  %95 = load float, ptr %94, align 8, !tbaa !14
  %96 = load float, ptr %12, align 4, !tbaa !12
  %97 = fadd float %96, %95
  store float %97, ptr %12, align 4, !tbaa !12
  br label %98

98:                                               ; preds = %92, %84, %75
  %99 = load ptr, ptr %10, align 8, !tbaa !3
  %100 = getelementptr inbounds nuw %struct.Map_NodeStruct_t_, ptr %99, i32 0, i32 6
  %101 = getelementptr inbounds [3 x i32], ptr %100, i64 0, i64 2
  %102 = load i32, ptr %101, align 8, !tbaa !10
  %103 = add nsw i32 %102, 1
  store i32 %103, ptr %101, align 8, !tbaa !10
  %104 = icmp sgt i32 %102, 0
  br i1 %104, label %105, label %106

105:                                              ; preds = %98
  br label %197

106:                                              ; preds = %98
  br label %107

107:                                              ; preds = %106, %74
  br label %169

108:                                              ; preds = %34
  %109 = load ptr, ptr %10, align 8, !tbaa !3
  %110 = getelementptr inbounds nuw %struct.Map_NodeStruct_t_, ptr %109, i32 0, i32 15
  %111 = getelementptr inbounds [2 x ptr], ptr %110, i64 0, i64 0
  %112 = load ptr, ptr %111, align 8, !tbaa !8
  %113 = icmp ne ptr %112, null
  br i1 %113, label %114, label %136

114:                                              ; preds = %108
  %115 = load ptr, ptr %10, align 8, !tbaa !3
  %116 = getelementptr inbounds nuw %struct.Map_NodeStruct_t_, ptr %115, i32 0, i32 15
  %117 = getelementptr inbounds [2 x ptr], ptr %116, i64 0, i64 1
  %118 = load ptr, ptr %117, align 8, !tbaa !8
  %119 = icmp ne ptr %118, null
  br i1 %119, label %120, label %136

120:                                              ; preds = %114
  %121 = load ptr, ptr %10, align 8, !tbaa !3
  %122 = getelementptr inbounds nuw %struct.Map_NodeStruct_t_, ptr %121, i32 0, i32 6
  %123 = getelementptr inbounds [3 x i32], ptr %122, i64 0, i64 2
  %124 = load i32, ptr %123, align 8, !tbaa !10
  %125 = add nsw i32 %124, -1
  store i32 %125, ptr %123, align 8, !tbaa !10
  %126 = load ptr, ptr %10, align 8, !tbaa !3
  %127 = getelementptr inbounds nuw %struct.Map_NodeStruct_t_, ptr %126, i32 0, i32 6
  %128 = load i32, ptr %14, align 4, !tbaa !10
  %129 = sext i32 %128 to i64
  %130 = getelementptr inbounds [3 x i32], ptr %127, i64 0, i64 %129
  %131 = load i32, ptr %130, align 4, !tbaa !10
  %132 = add nsw i32 %131, -1
  store i32 %132, ptr %130, align 4, !tbaa !10
  %133 = icmp sgt i32 %132, 0
  br i1 %133, label %134, label %135

134:                                              ; preds = %120
  br label %197

135:                                              ; preds = %120
  br label %168

136:                                              ; preds = %114, %108
  %137 = load ptr, ptr %10, align 8, !tbaa !3
  %138 = getelementptr inbounds nuw %struct.Map_NodeStruct_t_, ptr %137, i32 0, i32 6
  %139 = load i32, ptr %14, align 4, !tbaa !10
  %140 = sext i32 %139 to i64
  %141 = getelementptr inbounds [3 x i32], ptr %138, i64 0, i64 %140
  %142 = load i32, ptr %141, align 4, !tbaa !10
  %143 = add nsw i32 %142, -1
  store i32 %143, ptr %141, align 4, !tbaa !10
  %144 = icmp eq i32 %143, 0
  br i1 %144, label %145, label %159

145:                                              ; preds = %136
  %146 = load ptr, ptr %10, align 8, !tbaa !3
  %147 = getelementptr inbounds nuw %struct.Map_NodeStruct_t_, ptr %146, i32 0, i32 15
  %148 = load i32, ptr %14, align 4, !tbaa !10
  %149 = sext i32 %148 to i64
  %150 = getelementptr inbounds [2 x ptr], ptr %147, i64 0, i64 %149
  %151 = load ptr, ptr %150, align 8, !tbaa !8
  %152 = icmp eq ptr %151, null
  br i1 %152, label %153, label %159

153:                                              ; preds = %145
  %154 = load ptr, ptr %10, align 8, !tbaa !3
  %155 = getelementptr inbounds nuw %struct.Map_NodeStruct_t_, ptr %154, i32 0, i32 8
  %156 = load float, ptr %155, align 8, !tbaa !14
  %157 = load float, ptr %12, align 4, !tbaa !12
  %158 = fadd float %157, %156
  store float %158, ptr %12, align 4, !tbaa !12
  br label %159

159:                                              ; preds = %153, %145, %136
  %160 = load ptr, ptr %10, align 8, !tbaa !3
  %161 = getelementptr inbounds nuw %struct.Map_NodeStruct_t_, ptr %160, i32 0, i32 6
  %162 = getelementptr inbounds [3 x i32], ptr %161, i64 0, i64 2
  %163 = load i32, ptr %162, align 8, !tbaa !10
  %164 = add nsw i32 %163, -1
  store i32 %164, ptr %162, align 8, !tbaa !10
  %165 = icmp sgt i32 %164, 0
  br i1 %165, label %166, label %167

166:                                              ; preds = %159
  br label %197

167:                                              ; preds = %159
  br label %168

168:                                              ; preds = %167, %135
  br label %169

169:                                              ; preds = %168, %107
  %170 = load ptr, ptr %10, align 8, !tbaa !3
  %171 = getelementptr inbounds nuw %struct.Map_NodeStruct_t_, ptr %170, i32 0, i32 15
  %172 = load i32, ptr %14, align 4, !tbaa !10
  %173 = sext i32 %172 to i64
  %174 = getelementptr inbounds [2 x ptr], ptr %171, i64 0, i64 %173
  %175 = load ptr, ptr %174, align 8, !tbaa !8
  store ptr %175, ptr %11, align 8, !tbaa !8
  %176 = load ptr, ptr %11, align 8, !tbaa !8
  %177 = icmp eq ptr %176, null
  br i1 %177, label %178, label %189

178:                                              ; preds = %169
  %179 = load i32, ptr %14, align 4, !tbaa !10
  %180 = icmp ne i32 %179, 0
  %181 = xor i1 %180, true
  %182 = zext i1 %181 to i32
  store i32 %182, ptr %14, align 4, !tbaa !10
  %183 = load ptr, ptr %10, align 8, !tbaa !3
  %184 = getelementptr inbounds nuw %struct.Map_NodeStruct_t_, ptr %183, i32 0, i32 15
  %185 = load i32, ptr %14, align 4, !tbaa !10
  %186 = sext i32 %185 to i64
  %187 = getelementptr inbounds [2 x ptr], ptr %184, i64 0, i64 %186
  %188 = load ptr, ptr %187, align 8, !tbaa !8
  store ptr %188, ptr %11, align 8, !tbaa !8
  br label %189

189:                                              ; preds = %178, %169
  %190 = load ptr, ptr %10, align 8, !tbaa !3
  %191 = load ptr, ptr %11, align 8, !tbaa !8
  %192 = load i32, ptr %14, align 4, !tbaa !10
  %193 = load i32, ptr %9, align 4, !tbaa !10
  %194 = call float @Map_SwitchCutRefDeref(ptr noundef %190, ptr noundef %191, i32 noundef %192, i32 noundef %193)
  %195 = load float, ptr %12, align 4, !tbaa !12
  %196 = fadd float %195, %194
  store float %196, ptr %12, align 4, !tbaa !12
  br label %197

197:                                              ; preds = %189, %166, %134, %105, %73
  %198 = load i32, ptr %13, align 4, !tbaa !10
  %199 = add nsw i32 %198, 1
  store i32 %199, ptr %13, align 4, !tbaa !10
  br label %27, !llvm.loop !20

200:                                              ; preds = %27
  %201 = load float, ptr %12, align 4, !tbaa !12
  store float %201, ptr %5, align 4
  store i32 1, ptr %15, align 4
  br label %202

202:                                              ; preds = %200, %24
  call void @llvm.lifetime.end.p0(i64 4, ptr %14) #3
  call void @llvm.lifetime.end.p0(i64 4, ptr %13) #3
  call void @llvm.lifetime.end.p0(i64 4, ptr %12) #3
  call void @llvm.lifetime.end.p0(i64 8, ptr %11) #3
  call void @llvm.lifetime.end.p0(i64 8, ptr %10) #3
  %203 = load float, ptr %5, align 4
  ret float %203
}