; Function Attrs: nounwind uwtable
define internal fastcc float @Map_SwitchCutRefDeref(float %.56.val, ptr noundef %0, i32 noundef %1, i32 noundef range(i32 0, 2) %2) unnamed_addr #0 {
  %4 = getelementptr inbounds nuw i8, ptr %0, i64 76
  %5 = load i8, ptr %4, align 4, !tbaa !14
  %or.cond = icmp sgt i8 %5, 1
  br i1 %or.cond, label %.lr.ph, label %.loopexit

.lr.ph:                                           ; preds = %3
  %6 = getelementptr inbounds nuw i8, ptr %0, i64 24
  %.not = icmp eq i32 %2, 0
  br i1 %.not, label %.lr.ph.split.us, label %.lr.ph.split

.lr.ph.split.us:                                  ; preds = %.lr.ph, %59
  %indvars.iv5 = phi i64 [ %indvars.iv.next6, %59 ], [ 0, %.lr.ph ]
  %.0491.us = phi float [ %.1.us, %59 ], [ %.56.val, %.lr.ph ]
  %7 = getelementptr inbounds nuw [6 x ptr], ptr %6, i64 0, i64 %indvars.iv5
  %8 = load ptr, ptr %7, align 8, !tbaa !16
  %9 = trunc nuw nsw i64 %indvars.iv5 to i32
  %10 = tail call i32 @Map_CutGetLeafPhase(ptr noundef nonnull %0, i32 noundef %1, i32 noundef %9) #2
  %11 = getelementptr inbounds nuw i8, ptr %8, i64 144
  %12 = load ptr, ptr %11, align 8, !tbaa !17
  %.not53.us = icmp eq ptr %12, null
  br i1 %.not53.us, label %26, label %13

13:                                               ; preds = %.lr.ph.split.us
  %14 = getelementptr inbounds nuw i8, ptr %8, i64 152
  %15 = load ptr, ptr %14, align 8, !tbaa !17
  %.not54.us = icmp eq ptr %15, null
  br i1 %.not54.us, label %26, label %16

16:                                               ; preds = %13
  %17 = getelementptr inbounds nuw i8, ptr %8, i64 32
  %18 = getelementptr inbounds nuw i8, ptr %8, i64 40
  %19 = load i32, ptr %18, align 8, !tbaa !18
  %20 = add nsw i32 %19, -1
  store i32 %20, ptr %18, align 8, !tbaa !18
  %21 = sext i32 %10 to i64
  %22 = getelementptr inbounds [3 x i32], ptr %17, i64 0, i64 %21
  %23 = load i32, ptr %22, align 4, !tbaa !18
  %24 = add nsw i32 %23, -1
  store i32 %24, ptr %22, align 4, !tbaa !18
  %25 = icmp sgt i32 %23, 1
  br i1 %25, label %59, label %46

26:                                               ; preds = %13, %.lr.ph.split.us
  %27 = getelementptr inbounds nuw i8, ptr %8, i64 32
  %28 = sext i32 %10 to i64
  %29 = getelementptr inbounds [3 x i32], ptr %27, i64 0, i64 %28
  %30 = load i32, ptr %29, align 4, !tbaa !18
  %31 = add nsw i32 %30, -1
  store i32 %31, ptr %29, align 4, !tbaa !18
  %32 = icmp eq i32 %31, 0
  br i1 %32, label %33, label %41

33:                                               ; preds = %26
  %34 = getelementptr inbounds [2 x ptr], ptr %11, i64 0, i64 %28
  %35 = load ptr, ptr %34, align 8, !tbaa !17
  %36 = icmp eq ptr %35, null
  br i1 %36, label %37, label %41

37:                                               ; preds = %33
  %38 = getelementptr inbounds nuw i8, ptr %8, i64 56
  %39 = load float, ptr %38, align 8, !tbaa !3
  %40 = fadd float %.0491.us, %39
  br label %41

41:                                               ; preds = %37, %33, %26
  %.4.us = phi float [ %40, %37 ], [ %.0491.us, %33 ], [ %.0491.us, %26 ]
  %42 = getelementptr inbounds nuw i8, ptr %8, i64 40
  %43 = load i32, ptr %42, align 8, !tbaa !18
  %44 = add nsw i32 %43, -1
  store i32 %44, ptr %42, align 8, !tbaa !18
  %45 = icmp sgt i32 %43, 1
  br i1 %45, label %59, label %46

46:                                               ; preds = %41, %16
  %.pre-phi8 = phi i64 [ %28, %41 ], [ %21, %16 ]
  %.3.us = phi float [ %.4.us, %41 ], [ %.0491.us, %16 ]
  %47 = getelementptr inbounds [2 x ptr], ptr %11, i64 0, i64 %.pre-phi8
  %48 = load ptr, ptr %47, align 8, !tbaa !17
  %49 = icmp eq ptr %48, null
  br i1 %49, label %50, label %55

50:                                               ; preds = %46
  %.not57.us = icmp eq i32 %10, 0
  %51 = zext i1 %.not57.us to i32
  %52 = zext i1 %.not57.us to i64
  %53 = getelementptr inbounds nuw [2 x ptr], ptr %11, i64 0, i64 %52
  %54 = load ptr, ptr %53, align 8, !tbaa !17
  br label %55

55:                                               ; preds = %50, %46
  %.050.us = phi ptr [ %54, %50 ], [ %48, %46 ]
  %.0.us = phi i32 [ %51, %50 ], [ %10, %46 ]
  %56 = getelementptr i8, ptr %8, i64 56
  %.val.us = load float, ptr %56, align 8, !tbaa !3
  %57 = tail call fastcc float @Map_SwitchCutRefDeref(float %.val.us, ptr noundef %.050.us, i32 noundef %.0.us, i32 noundef 0)
  %58 = fadd float %.3.us, %57
  br label %59

59:                                               ; preds = %55, %41, %16
  %.1.us = phi float [ %58, %55 ], [ %.0491.us, %16 ], [ %.4.us, %41 ]
  %indvars.iv.next6 = add nuw nsw i64 %indvars.iv5, 1
  %60 = load i8, ptr %4, align 4, !tbaa !14
  %61 = sext i8 %60 to i64
  %62 = icmp slt i64 %indvars.iv.next6, %61
  br i1 %62, label %.lr.ph.split.us, label %.loopexit, !llvm.loop !19

.lr.ph.split:                                     ; preds = %.lr.ph, %115
  %indvars.iv = phi i64 [ %indvars.iv.next, %115 ], [ 0, %.lr.ph ]
  %.0491 = phi float [ %.1, %115 ], [ %.56.val, %.lr.ph ]
  %63 = getelementptr inbounds nuw [6 x ptr], ptr %6, i64 0, i64 %indvars.iv
  %64 = load ptr, ptr %63, align 8, !tbaa !16
  %65 = trunc nuw nsw i64 %indvars.iv to i32
  %66 = tail call i32 @Map_CutGetLeafPhase(ptr noundef nonnull %0, i32 noundef %1, i32 noundef %65) #2
  %67 = getelementptr inbounds nuw i8, ptr %64, i64 144
  %68 = load ptr, ptr %67, align 8, !tbaa !17
  %.not55 = icmp eq ptr %68, null
  br i1 %.not55, label %82, label %69

69:                                               ; preds = %.lr.ph.split
  %70 = getelementptr inbounds nuw i8, ptr %64, i64 152
  %71 = load ptr, ptr %70, align 8, !tbaa !17
  %.not56 = icmp eq ptr %71, null
  br i1 %.not56, label %82, label %72

72:                                               ; preds = %69
  %73 = getelementptr inbounds nuw i8, ptr %64, i64 32
  %74 = getelementptr inbounds nuw i8, ptr %64, i64 40
  %75 = load i32, ptr %74, align 8, !tbaa !18
  %76 = add nsw i32 %75, 1
  store i32 %76, ptr %74, align 8, !tbaa !18
  %77 = sext i32 %66 to i64
  %78 = getelementptr inbounds [3 x i32], ptr %73, i64 0, i64 %77
  %79 = load i32, ptr %78, align 4, !tbaa !18
  %80 = add nsw i32 %79, 1
  store i32 %80, ptr %78, align 4, !tbaa !18
  %81 = icmp sgt i32 %79, 0
  br i1 %81, label %115, label %102

82:                                               ; preds = %69, %.lr.ph.split
  %83 = getelementptr inbounds nuw i8, ptr %64, i64 32
  %84 = sext i32 %66 to i64
  %85 = getelementptr inbounds [3 x i32], ptr %83, i64 0, i64 %84
  %86 = load i32, ptr %85, align 4, !tbaa !18
  %87 = add nsw i32 %86, 1
  store i32 %87, ptr %85, align 4, !tbaa !18
  %88 = icmp eq i32 %86, 0
  br i1 %88, label %89, label %97

89:                                               ; preds = %82
  %90 = getelementptr inbounds [2 x ptr], ptr %67, i64 0, i64 %84
  %91 = load ptr, ptr %90, align 8, !tbaa !17
  %92 = icmp eq ptr %91, null
  br i1 %92, label %93, label %97

93:                                               ; preds = %89
  %94 = getelementptr inbounds nuw i8, ptr %64, i64 56
  %95 = load float, ptr %94, align 8, !tbaa !3
  %96 = fadd float %.0491, %95
  br label %97

97:                                               ; preds = %93, %89, %82
  %.2 = phi float [ %96, %93 ], [ %.0491, %89 ], [ %.0491, %82 ]
  %98 = getelementptr inbounds nuw i8, ptr %64, i64 40
  %99 = load i32, ptr %98, align 8, !tbaa !18
  %100 = add nsw i32 %99, 1
  store i32 %100, ptr %98, align 8, !tbaa !18
  %101 = icmp sgt i32 %99, 0
  br i1 %101, label %115, label %102

102:                                              ; preds = %72, %97
  %.pre-phi = phi i64 [ %77, %72 ], [ %84, %97 ]
  %.3 = phi float [ %.0491, %72 ], [ %.2, %97 ]
  %103 = getelementptr inbounds [2 x ptr], ptr %67, i64 0, i64 %.pre-phi
  %104 = load ptr, ptr %103, align 8, !tbaa !17
  %105 = icmp eq ptr %104, null
  br i1 %105, label %106, label %111

106:                                              ; preds = %102
  %.not57 = icmp eq i32 %66, 0
  %107 = zext i1 %.not57 to i32
  %108 = zext i1 %.not57 to i64
  %109 = getelementptr inbounds nuw [2 x ptr], ptr %67, i64 0, i64 %108
  %110 = load ptr, ptr %109, align 8, !tbaa !17
  br label %111

111:                                              ; preds = %106, %102
  %.050 = phi ptr [ %110, %106 ], [ %104, %102 ]
  %.0 = phi i32 [ %107, %106 ], [ %66, %102 ]
  %112 = getelementptr i8, ptr %64, i64 56
  %.val = load float, ptr %112, align 8, !tbaa !3
  %113 = tail call fastcc float @Map_SwitchCutRefDeref(float %.val, ptr noundef %.050, i32 noundef %.0, i32 noundef %2)
  %114 = fadd float %.3, %113
  br label %115

115:                                              ; preds = %97, %72, %111
  %.1 = phi float [ %.0491, %72 ], [ %114, %111 ], [ %.2, %97 ]
  %indvars.iv.next = add nuw nsw i64 %indvars.iv, 1
  %116 = load i8, ptr %4, align 4, !tbaa !14
  %117 = sext i8 %116 to i64
  %118 = icmp slt i64 %indvars.iv.next, %117
  br i1 %118, label %.lr.ph.split, label %.loopexit, !llvm.loop !19

.loopexit:                                        ; preds = %115, %59, %3
  %.051 = phi float [ %.56.val, %3 ], [ %.1.us, %59 ], [ %.1, %115 ]
  ret float %.051
}